target datalayout = "e-m:e-p270:32:32-p271:32:32-p272:64:64-i64:64-i128:128-f80:128-n8:16:32:64-S128"
target triple = "x86_64-pc-linux-gnu"

%struct.ZSTD_customMem = type { ptr, ptr, ptr }
%struct.ZSTD_DCtx_s = type { ptr, ptr, ptr, ptr, %struct.ZSTD_entropyDTables_t, [640 x i32], ptr, ptr, ptr, ptr, i64, %struct.ZSTD_FrameHeader, i64, i64, i32, i32, i32, i32, %struct.XXH64_state_s, i64, i32, i32, i32, ptr, %struct.ZSTD_customMem, i64, i64, i64, i32, i32, ptr, ptr, i32, i32, i32, ptr, i32, i32, i32, i32, ptr, i64, i64, i64, ptr, i64, i64, i64, i64, ptr, i32, i32, i32, i32, i32, %struct.ZSTD_outBuffer_s, ptr, ptr, i32, [65568 x i8], [18 x i8], i64, i64 }
%struct.ZSTD_entropyDTables_t = type { [513 x %struct.ZSTD_seqSymbol], [257 x %struct.ZSTD_seqSymbol], [513 x %struct.ZSTD_seqSymbol], [4097 x i32], [3 x i32], [157 x i32] }
%struct.ZSTD_seqSymbol = type { i16, i8, i8, i32 }
%struct.ZSTD_FrameHeader = type { i64, i64, i32, i32, i32, i32, i32, i32, i32 }
%struct.XXH64_state_s = type { i64, [4 x i64], [4 x i64], i32, i32, i64 }
%struct.ZSTD_outBuffer_s = type { ptr, i64, i64 }
%struct.ZSTD_cpuid_t = type { i32, i32, i32, i32 }

@ZSTD_defaultCMem = internal constant %struct.ZSTD_customMem zeroinitializer, align 8

; Function Attrs: inlinehint nounwind uwtable
define internal i32 @ZSTD_cpuid_bmi2(i64 %0, i64 %1) #4 {
  %3 = alloca %struct.ZSTD_cpuid_t, align 4
  %4 = getelementptr inbounds nuw { i64, i64 }, ptr %3, i32 0, i32 0
  store i64 %0, ptr %4, align 4
  %5 = getelementptr inbounds nuw { i64, i64 }, ptr %3, i32 0, i32 1
  store i64 %1, ptr %5, align 4
  %6 = getelementptr inbounds nuw %struct.ZSTD_cpuid_t, ptr %3, i32 0, i32 2
  %7 = load i32, ptr %6, align 4, !tbaa !165
  %8 = and i32 %7, 256
  %9 = icmp ne i32 %8, 0
  %10 = zext i1 %9 to i32
  ret i32 %10
}

; Function Attrs: inlinehint nounwind uwtable
define internal i32 @ZSTD_cpuid_bmi1(i64 %0, i64 %1) #4 {
  %3 = alloca %struct.ZSTD_cpuid_t, align 4
  %4 = getelementptr inbounds nuw { i64, i64 }, ptr %3, i32 0, i32 0
  store i64 %0, ptr %4, align 4
  %5 = getelementptr inbounds nuw { i64, i64 }, ptr %3, i32 0, i32 1
  store i64 %1, ptr %5, align 4
  %6 = getelementptr inbounds nuw %struct.ZSTD_cpuid_t, ptr %3, i32 0, i32 2
  %7 = load i32, ptr %6, align 4, !tbaa !165
  %8 = and i32 %7, 8
  %9 = icmp ne i32 %8, 0
  %10 = zext i1 %9 to i32
  ret i32 %10
}

; Function Attrs: inlinehint nounwind uwtable
define internal { i64, i64 } @ZSTD_cpuid() #4 {
  %1 = alloca %struct.ZSTD_cpuid_t, align 4
  %2 = alloca i32, align 4
  %3 = alloca i32, align 4
  %4 = alloca i32, align 4
  %5 = alloca i32, align 4
  %6 = alloca i32, align 4
  %7 = alloca i32, align 4
  %8 = alloca i32, align 4
  call void @llvm.lifetime.start.p0(i64 4, ptr %2) #11
  store i32 0, ptr %2, align 4, !tbaa !43
  call void @llvm.lifetime.start.p0(i64 4, ptr %3) #11
  store i32 0, ptr %3, align 4, !tbaa !43
  call void @llvm.lifetime.start.p0(i64 4, ptr %4) #11
  store i32 0, ptr %4, align 4, !tbaa !43
  call void @llvm.lifetime.start.p0(i64 4, ptr %5) #11
  store i32 0, ptr %5, align 4, !tbaa !43
  call void @llvm.lifetime.start.p0(i64 4, ptr %6) #11
  %9 = call i32 asm "cpuid", "={ax},{ax},~{ebx},~{ecx},~{edx},~{dirflag},~{fpsr},~{flags}"(i32 0) #14, !srcloc !159
  store i32 %9, ptr %6, align 4, !tbaa !43
  %10 = load i32, ptr %6, align 4, !tbaa !43
  %11 = icmp uge i32 %10, 1
  br i1 %11, label %12, label %17

12:                                               ; preds = %0
  call void @llvm.lifetime.start.p0(i64 4, ptr %7) #11
  %13 = call { i32, i32, i32 } asm "cpuid", "={ax},={cx},={dx},{ax},~{ebx},~{dirflag},~{fpsr},~{flags}"(i32 1) #14, !srcloc !160
  %14 = extractvalue { i32, i32, i32 } %13, 0
  %15 = extractvalue { i32, i32, i32 } %13, 1
  %16 = extractvalue { i32, i32, i32 } %13, 2
  store i32 %14, ptr %7, align 4, !tbaa !43
  store i32 %15, ptr %2, align 4, !tbaa !43
  store i32 %16, ptr %3, align 4, !tbaa !43
  call void @llvm.lifetime.end.p0(i64 4, ptr %7) #11
  br label %17

17:                                               ; preds = %12, %0
  %18 = load i32, ptr %6, align 4, !tbaa !43
  %19 = icmp uge i32 %18, 7
  br i1 %19, label %20, label %25

20:                                               ; preds = %17
  call void @llvm.lifetime.start.p0(i64 4, ptr %8) #11
  %21 = call { i32, i32, i32 } asm "cpuid", "={ax},={bx},={cx},{ax},{cx},~{edx},~{dirflag},~{fpsr},~{flags}"(i32 7, i32 0) #14, !srcloc !161
  %22 = extractvalue { i32, i32, i32 } %21, 0
  %23 = extractvalue { i32, i32, i32 } %21, 1
  %24 = extractvalue { i32, i32, i32 } %21, 2
  store i32 %22, ptr %8, align 4, !tbaa !43
  store i32 %23, ptr %4, align 4, !tbaa !43
  store i32 %24, ptr %5, align 4, !tbaa !43
  call void @llvm.lifetime.end.p0(i64 4, ptr %8) #11
  br label %25

25:                                               ; preds = %20, %17
  %26 = load i32, ptr %2, align 4, !tbaa !43
  %27 = getelementptr inbounds nuw %struct.ZSTD_cpuid_t, ptr %1, i32 0, i32 0
  store i32 %26, ptr %27, align 4, !tbaa !162
  %28 = load i32, ptr %3, align 4, !tbaa !43
  %29 = getelementptr inbounds nuw %struct.ZSTD_cpuid_t, ptr %1, i32 0, i32 1
  store i32 %28, ptr %29, align 4, !tbaa !164
  %30 = load i32, ptr %4, align 4, !tbaa !43
  %31 = getelementptr inbounds nuw %struct.ZSTD_cpuid_t, ptr %1, i32 0, i32 2
  store i32 %30, ptr %31, align 4, !tbaa !165
  %32 = load i32, ptr %5, align 4, !tbaa !43
  %33 = getelementptr inbounds nuw %struct.ZSTD_cpuid_t, ptr %1, i32 0, i32 3
  store i32 %32, ptr %33, align 4, !tbaa !166
  call void @llvm.lifetime.end.p0(i64 4, ptr %6) #11
  call void @llvm.lifetime.end.p0(i64 4, ptr %5) #11
  call void @llvm.lifetime.end.p0(i64 4, ptr %4) #11
  call void @llvm.lifetime.end.p0(i64 4, ptr %3) #11
  call void @llvm.lifetime.end.p0(i64 4, ptr %2) #11
  %34 = load { i64, i64 }, ptr %1, align 4
  ret { i64, i64 } %34
}

; Function Attrs: nounwind uwtable
define internal void @ZSTD_clearDict(ptr noundef %0) #0 {
  %2 = alloca ptr, align 8
  store ptr %0, ptr %2, align 8, !tbaa !3
  %3 = load ptr, ptr %2, align 8, !tbaa !3
  %4 = getelementptr inbounds nuw %struct.ZSTD_DCtx_s, ptr %3, i32 0, i32 30
  %5 = load ptr, ptr %4, align 8, !tbaa !8
  %6 = call i64 @ZSTD_freeDDict(ptr noundef %5)
  %7 = load ptr, ptr %2, align 8, !tbaa !3
  %8 = getelementptr inbounds nuw %struct.ZSTD_DCtx_s, ptr %7, i32 0, i32 30
  store ptr null, ptr %8, align 8, !tbaa !8
  %9 = load ptr, ptr %2, align 8, !tbaa !3
  %10 = getelementptr inbounds nuw %struct.ZSTD_DCtx_s, ptr %9, i32 0, i32 31
  store ptr null, ptr %10, align 8, !tbaa !27
  %11 = load ptr, ptr %2, align 8, !tbaa !3
  %12 = getelementptr inbounds nuw %struct.ZSTD_DCtx_s, ptr %11, i32 0, i32 34
  store i32 0, ptr %12, align 8, !tbaa !30
  ret void
}

; Function Attrs: nounwind uwtable
define internal void @ZSTD_DCtx_resetParameters(ptr noundef %0) #0 {
  %2 = alloca ptr, align 8
  store ptr %0, ptr %2, align 8, !tbaa !3
  %3 = load ptr, ptr %2, align 8, !tbaa !3
  %4 = getelementptr inbounds nuw %struct.ZSTD_DCtx_s, ptr %3, i32 0, i32 20
  store i32 0, ptr %4, align 8, !tbaa !77
  %5 = load ptr, ptr %2, align 8, !tbaa !3
  %6 = getelementptr inbounds nuw %struct.ZSTD_DCtx_s, ptr %5, i32 0, i32 43
  store i64 134217729, ptr %6, align 8, !tbaa !122
  %7 = load ptr, ptr %2, align 8, !tbaa !3
  %8 = getelementptr inbounds nuw %struct.ZSTD_DCtx_s, ptr %7, i32 0, i32 54
  store i32 0, ptr %8, align 8, !tbaa !124
  %9 = load ptr, ptr %2, align 8, !tbaa !3
  %10 = getelementptr inbounds nuw %struct.ZSTD_DCtx_s, ptr %9, i32 0, i32 21
  store i32 0, ptr %10, align 4, !tbaa !95
  %11 = load ptr, ptr %2, align 8, !tbaa !3
  %12 = getelementptr inbounds nuw %struct.ZSTD_DCtx_s, ptr %11, i32 0, i32 36
  store i32 0, ptr %12, align 8, !tbaa !92
  %13 = load ptr, ptr %2, align 8, !tbaa !3
  %14 = getelementptr inbounds nuw %struct.ZSTD_DCtx_s, ptr %13, i32 0, i32 37
  store i32 0, ptr %14, align 4, !tbaa !125
  %15 = load ptr, ptr %2, align 8, !tbaa !3
  %16 = getelementptr inbounds nuw %struct.ZSTD_DCtx_s, ptr %15, i32 0, i32 38
  store i32 0, ptr %16, align 8, !tbaa !126
  ret void
}

; Function Attrs: inlinehint nounwind uwtable
define internal i32 @ZSTD_cpuSupportsBmi2() #4 {
  %1 = alloca %struct.ZSTD_cpuid_t, align 4
  call void @llvm.lifetime.start.p0(i64 16, ptr %1) #11
  %2 = call { i64, i64 } @ZSTD_cpuid()
  %3 = getelementptr inbounds nuw { i64, i64 }, ptr %1, i32 0, i32 0
  %4 = extractvalue { i64, i64 } %2, 0
  store i64 %4, ptr %3, align 4
  %5 = getelementptr inbounds nuw { i64, i64 }, ptr %1, i32 0, i32 1
  %6 = extractvalue { i64, i64 } %2, 1
  store i64 %6, ptr %5, align 4
  %7 = getelementptr inbounds nuw { i64, i64 }, ptr %1, i32 0, i32 0
  %8 = load i64, ptr %7, align 4
  %9 = getelementptr inbounds nuw { i64, i64 }, ptr %1, i32 0, i32 1
  %10 = load i64, ptr %9, align 4
  %11 = call i32 @ZSTD_cpuid_bmi1(i64 %8, i64 %10)
  %12 = icmp ne i32 %11, 0
  br i1 %12, label %13, label %20

13:                                               ; preds = %0
  %14 = getelementptr inbounds nuw { i64, i64 }, ptr %1, i32 0, i32 0
  %15 = load i64, ptr %14, align 4
  %16 = getelementptr inbounds nuw { i64, i64 }, ptr %1, i32 0, i32 1
  %17 = load i64, ptr %16, align 4
  %18 = call i32 @ZSTD_cpuid_bmi2(i64 %15, i64 %17)
  %19 = icmp ne i32 %18, 0
  br label %20

20:                                               ; preds = %13, %0
  %21 = phi i1 [ false, %0 ], [ %19, %13 ]
  %22 = zext i1 %21 to i32
  call void @llvm.lifetime.end.p0(i64 16, ptr %1) #11
  ret i32 %22
}

; Function Attrs: nounwind uwtable
define i64 @ZSTD_decompress_usingDDict(ptr noundef %0, ptr noundef %1, i64 noundef %2, ptr noundef %3, i64 noundef %4, ptr noundef %5) #0 {
  %7 = alloca ptr, align 8
  %8 = alloca ptr, align 8
  %9 = alloca i64, align 8
  %10 = alloca ptr, align 8
  %11 = alloca i64, align 8
  %12 = alloca ptr, align 8
  store ptr %0, ptr %7, align 8, !tbaa !3
  store ptr %1, ptr %8, align 8, !tbaa !23
  store i64 %2, ptr %9, align 8, !tbaa !24
  store ptr %3, ptr %10, align 8, !tbaa !23
  store i64 %4, ptr %11, align 8, !tbaa !24
  store ptr %5, ptr %12, align 8, !tbaa !76
  %13 = load ptr, ptr %7, align 8, !tbaa !3
  %14 = load ptr, ptr %8, align 8, !tbaa !23
  %15 = load i64, ptr %9, align 8, !tbaa !24
  %16 = load ptr, ptr %10, align 8, !tbaa !23
  %17 = load i64, ptr %11, align 8, !tbaa !24
  %18 = load ptr, ptr %12, align 8, !tbaa !76
  %19 = call i64 @ZSTD_decompressMultiFrame(ptr noundef %13, ptr noundef %14, i64 noundef %15, ptr noundef %16, i64 noundef %17, ptr noundef null, i64 noundef 0, ptr noundef %18)
  ret i64 %19
}

; Function Attrs: nounwind uwtable
define internal ptr @ZSTD_getDDict(ptr noundef %0) #0 {
  %2 = alloca ptr, align 8
  %3 = alloca ptr, align 8
  store ptr %0, ptr %3, align 8, !tbaa !3
  %4 = load ptr, ptr %3, align 8, !tbaa !3
  %5 = getelementptr inbounds nuw %struct.ZSTD_DCtx_s, ptr %4, i32 0, i32 34
  %6 = load i32, ptr %5, align 8, !tbaa !30
  switch i32 %6, label %7 [
    i32 0, label %8
    i32 -1, label %10
    i32 1, label %14
  ]

7:                                                ; preds = %1
  br label %8

8:                                                ; preds = %1, %7
  %9 = load ptr, ptr %3, align 8, !tbaa !3
  call void @ZSTD_clearDict(ptr noundef %9)
  store ptr null, ptr %2, align 8
  br label %20

10:                                               ; preds = %1
  %11 = load ptr, ptr %3, align 8, !tbaa !3
  %12 = getelementptr inbounds nuw %struct.ZSTD_DCtx_s, ptr %11, i32 0, i32 31
  %13 = load ptr, ptr %12, align 8, !tbaa !27
  store ptr %13, ptr %2, align 8
  br label %20

14:                                               ; preds = %1
  %15 = load ptr, ptr %3, align 8, !tbaa !3
  %16 = getelementptr inbounds nuw %struct.ZSTD_DCtx_s, ptr %15, i32 0, i32 34
  store i32 0, ptr %16, align 8, !tbaa !30
  %17 = load ptr, ptr %3, align 8, !tbaa !3
  %18 = getelementptr inbounds nuw %struct.ZSTD_DCtx_s, ptr %17, i32 0, i32 31
  %19 = load ptr, ptr %18, align 8, !tbaa !27
  store ptr %19, ptr %2, align 8
  br label %20

20:                                               ; preds = %14, %10, %8
  %21 = load ptr, ptr %2, align 8
  ret ptr %21
}

; Function Attrs: nounwind uwtable
define internal void @ZSTD_initDCtx_internal(ptr noundef %0) #0 {
  %2 = alloca ptr, align 8
  store ptr %0, ptr %2, align 8, !tbaa !3
  %3 = load ptr, ptr %2, align 8, !tbaa !3
  %4 = getelementptr inbounds nuw %struct.ZSTD_DCtx_s, ptr %3, i32 0, i32 27
  store i64 0, ptr %4, align 8, !tbaa !25
  %5 = load ptr, ptr %2, align 8, !tbaa !3
  %6 = getelementptr inbounds nuw %struct.ZSTD_DCtx_s, ptr %5, i32 0, i32 31
  store ptr null, ptr %6, align 8, !tbaa !27
  %7 = load ptr, ptr %2, align 8, !tbaa !3
  %8 = getelementptr inbounds nuw %struct.ZSTD_DCtx_s, ptr %7, i32 0, i32 30
  store ptr null, ptr %8, align 8, !tbaa !8
  %9 = load ptr, ptr %2, align 8, !tbaa !3
  %10 = getelementptr inbounds nuw %struct.ZSTD_DCtx_s, ptr %9, i32 0, i32 9
  store ptr null, ptr %10, align 8, !tbaa !28
  %11 = load ptr, ptr %2, align 8, !tbaa !3
  %12 = getelementptr inbounds nuw %struct.ZSTD_DCtx_s, ptr %11, i32 0, i32 33
  store i32 0, ptr %12, align 4, !tbaa !29
  %13 = load ptr, ptr %2, align 8, !tbaa !3
  %14 = getelementptr inbounds nuw %struct.ZSTD_DCtx_s, ptr %13, i32 0, i32 34
  store i32 0, ptr %14, align 8, !tbaa !30
  %15 = load ptr, ptr %2, align 8, !tbaa !3
  %16 = getelementptr inbounds nuw %struct.ZSTD_DCtx_s, ptr %15, i32 0, i32 40
  store ptr null, ptr %16, align 8, !tbaa !26
  %17 = load ptr, ptr %2, align 8, !tbaa !3
  %18 = getelementptr inbounds nuw %struct.ZSTD_DCtx_s, ptr %17, i32 0, i32 41
  store i64 0, ptr %18, align 8, !tbaa !21
  %19 = load ptr, ptr %2, align 8, !tbaa !3
  %20 = getelementptr inbounds nuw %struct.ZSTD_DCtx_s, ptr %19, i32 0, i32 45
  store i64 0, ptr %20, align 8, !tbaa !22
  %21 = load ptr, ptr %2, align 8, !tbaa !3
  %22 = getelementptr inbounds nuw %struct.ZSTD_DCtx_s, ptr %21, i32 0, i32 39
  store i32 0, ptr %22, align 4, !tbaa !31
  %23 = load ptr, ptr %2, align 8, !tbaa !3
  %24 = getelementptr inbounds nuw %struct.ZSTD_DCtx_s, ptr %23, i32 0, i32 49
  store ptr null, ptr %24, align 8, !tbaa !32
  %25 = load ptr, ptr %2, align 8, !tbaa !3
  %26 = getelementptr inbounds nuw %struct.ZSTD_DCtx_s, ptr %25, i32 0, i32 50
  store i32 0, ptr %26, align 8, !tbaa !33
  %27 = load ptr, ptr %2, align 8, !tbaa !3
  %28 = getelementptr inbounds nuw %struct.ZSTD_DCtx_s, ptr %27, i32 0, i32 53
  store i32 0, ptr %28, align 4, !tbaa !34
  %29 = load ptr, ptr %2, align 8, !tbaa !3
  %30 = getelementptr inbounds nuw %struct.ZSTD_DCtx_s, ptr %29, i32 0, i32 61
  store i64 0, ptr %30, align 8, !tbaa !35
  %31 = load ptr, ptr %2, align 8, !tbaa !3
  %32 = getelementptr inbounds nuw %struct.ZSTD_DCtx_s, ptr %31, i32 0, i32 28
  store i32 1, ptr %32, align 8, !tbaa !36
  %33 = call i32 @ZSTD_cpuSupportsBmi2()
  %34 = load ptr, ptr %2, align 8, !tbaa !3
  %35 = getelementptr inbounds nuw %struct.ZSTD_DCtx_s, ptr %34, i32 0, i32 29
  store i32 %33, ptr %35, align 4, !tbaa !37
  %36 = load ptr, ptr %2, align 8, !tbaa !3
  %37 = getelementptr inbounds nuw %struct.ZSTD_DCtx_s, ptr %36, i32 0, i32 35
  store ptr null, ptr %37, align 8, !tbaa !38
  %38 = load ptr, ptr %2, align 8, !tbaa !3
  call void @ZSTD_DCtx_resetParameters(ptr noundef %38)
  ret void
}

; Function Attrs: inlinehint nounwind uwtable
define internal ptr @ZSTD_customMalloc(i64 noundef %0, ptr noundef byval(%struct.ZSTD_customMem) align 8 %1) #4 {
  %3 = alloca ptr, align 8
  %4 = alloca i64, align 8
  store i64 %0, ptr %4, align 8, !tbaa !24
  %5 = getelementptr inbounds nuw %struct.ZSTD_customMem, ptr %1, i32 0, i32 0
  %6 = load ptr, ptr %5, align 8, !tbaa !39
  %7 = icmp ne ptr %6, null
  br i1 %7, label %8, label %15

8:                                                ; preds = %2
  %9 = getelementptr inbounds nuw %struct.ZSTD_customMem, ptr %1, i32 0, i32 0
  %10 = load ptr, ptr %9, align 8, !tbaa !39
  %11 = getelementptr inbounds nuw %struct.ZSTD_customMem, ptr %1, i32 0, i32 2
  %12 = load ptr, ptr %11, align 8, !tbaa !42
  %13 = load i64, ptr %4, align 8, !tbaa !24
  %14 = call ptr %10(ptr noundef %12, i64 noundef %13)
  store ptr %14, ptr %3, align 8
  br label %18

15:                                               ; preds = %2
  %16 = load i64, ptr %4, align 8, !tbaa !24
  %17 = call noalias ptr @malloc(i64 noundef %16) #13
  store ptr %17, ptr %3, align 8
  br label %18

18:                                               ; preds = %15, %8
  %19 = load ptr, ptr %3, align 8
  ret ptr %19
}

; Function Attrs: nounwind uwtable
define i64 @ZSTD_decompressDCtx(ptr noundef %0, ptr noundef %1, i64 noundef %2, ptr noundef %3, i64 noundef %4) #0 {
  %6 = alloca ptr, align 8
  %7 = alloca ptr, align 8
  %8 = alloca i64, align 8
  %9 = alloca ptr, align 8
  %10 = alloca i64, align 8
  store ptr %0, ptr %6, align 8, !tbaa !3
  store ptr %1, ptr %7, align 8, !tbaa !23
  store i64 %2, ptr %8, align 8, !tbaa !24
  store ptr %3, ptr %9, align 8, !tbaa !23
  store i64 %4, ptr %10, align 8, !tbaa !24
  %11 = load ptr, ptr %6, align 8, !tbaa !3
  %12 = load ptr, ptr %7, align 8, !tbaa !23
  %13 = load i64, ptr %8, align 8, !tbaa !24
  %14 = load ptr, ptr %9, align 8, !tbaa !23
  %15 = load i64, ptr %10, align 8, !tbaa !24
  %16 = load ptr, ptr %6, align 8, !tbaa !3
  %17 = call ptr @ZSTD_getDDict(ptr noundef %16)
  %18 = call i64 @ZSTD_decompress_usingDDict(ptr noundef %11, ptr noundef %12, i64 noundef %13, ptr noundef %14, i64 noundef %15, ptr noundef %17)
  ret i64 %18
}

; Function Attrs: nounwind uwtable
define internal ptr @ZSTD_createDCtx_internal(ptr noundef byval(%struct.ZSTD_customMem) align 8 %0) #0 {
  %2 = alloca ptr, align 8
  %3 = alloca ptr, align 8
  %4 = alloca i32, align 4
  %5 = getelementptr inbounds nuw %struct.ZSTD_customMem, ptr %0, i32 0, i32 0
  %6 = load ptr, ptr %5, align 8, !tbaa !39
  %7 = icmp ne ptr %6, null
  %8 = xor i1 %7, true
  %9 = zext i1 %8 to i32
  %10 = getelementptr inbounds nuw %struct.ZSTD_customMem, ptr %0, i32 0, i32 1
  %11 = load ptr, ptr %10, align 8, !tbaa !40
  %12 = icmp ne ptr %11, null
  %13 = xor i1 %12, true
  %14 = zext i1 %13 to i32
  %15 = xor i32 %9, %14
  %16 = icmp ne i32 %15, 0
  br i1 %16, label %17, label %18

17:                                               ; preds = %1
  store ptr null, ptr %2, align 8
  br label %29

18:                                               ; preds = %1
  call void @llvm.lifetime.start.p0(i64 8, ptr %3) #11
  %19 = call ptr @ZSTD_customMalloc(i64 noundef 95992, ptr noundef byval(%struct.ZSTD_customMem) align 8 %0)
  store ptr %19, ptr %3, align 8, !tbaa !3
  %20 = load ptr, ptr %3, align 8, !tbaa !3
  %21 = icmp ne ptr %20, null
  br i1 %21, label %23, label %22

22:                                               ; preds = %18
  store ptr null, ptr %2, align 8
  store i32 1, ptr %4, align 4
  br label %28

23:                                               ; preds = %18
  %24 = load ptr, ptr %3, align 8, !tbaa !3
  %25 = getelementptr inbounds nuw %struct.ZSTD_DCtx_s, ptr %24, i32 0, i32 24
  call void @llvm.memcpy.p0.p0.i64(ptr align 8 %25, ptr align 8 %0, i64 24, i1 false), !tbaa.struct !41
  %26 = load ptr, ptr %3, align 8, !tbaa !3
  call void @ZSTD_initDCtx_internal(ptr noundef %26)
  %27 = load ptr, ptr %3, align 8, !tbaa !3
  store ptr %27, ptr %2, align 8
  store i32 1, ptr %4, align 4
  br label %28

28:                                               ; preds = %23, %22
  call void @llvm.lifetime.end.p0(i64 8, ptr %3) #11
  br label %29

29:                                               ; preds = %28, %17
  %30 = load ptr, ptr %2, align 8
  ret ptr %30
}

; Function Attrs: nounwind uwtable
define i64 @ZSTD_decompress(ptr noundef %0, i64 noundef %1, ptr noundef %2, i64 noundef %3) #0 {
  %5 = alloca i64, align 8
  %6 = alloca ptr, align 8
  %7 = alloca i64, align 8
  %8 = alloca ptr, align 8
  %9 = alloca i64, align 8
  %10 = alloca i64, align 8
  %11 = alloca ptr, align 8
  %12 = alloca i32, align 4
  store ptr %0, ptr %6, align 8, !tbaa !23
  store i64 %1, ptr %7, align 8, !tbaa !24
  store ptr %2, ptr %8, align 8, !tbaa !23
  store i64 %3, ptr %9, align 8, !tbaa !24
  call void @llvm.lifetime.start.p0(i64 8, ptr %10) #11
  call void @llvm.lifetime.start.p0(i64 8, ptr %11) #11
  %13 = call ptr @ZSTD_createDCtx_internal(ptr noundef byval(%struct.ZSTD_customMem) align 8 @ZSTD_defaultCMem)
  store ptr %13, ptr %11, align 8, !tbaa !3
  br label %14

14:                                               ; preds = %4
  %15 = load ptr, ptr %11, align 8, !tbaa !3
  %16 = icmp eq ptr %15, null
  br i1 %16, label %17, label %30

17:                                               ; preds = %14
  br label %18

18:                                               ; preds = %17
  br label %19

19:                                               ; preds = %18
  br label %20

20:                                               ; preds = %19
  br label %21

21:                                               ; preds = %20
  br label %22

22:                                               ; preds = %21
  br label %23

23:                                               ; preds = %22
  br label %24

24:                                               ; preds = %23
  br label %25

25:                                               ; preds = %24
  br label %26

26:                                               ; preds = %25
  br label %27

27:                                               ; preds = %26
  br label %28

28:                                               ; preds = %27
  br label %29

29:                                               ; preds = %28
  store i64 -64, ptr %5, align 8
  store i32 1, ptr %12, align 4
  br label %42

30:                                               ; preds = %14
  br label %31

31:                                               ; preds = %30
  br label %32

32:                                               ; preds = %31
  %33 = load ptr, ptr %11, align 8, !tbaa !3
  %34 = load ptr, ptr %6, align 8, !tbaa !23
  %35 = load i64, ptr %7, align 8, !tbaa !24
  %36 = load ptr, ptr %8, align 8, !tbaa !23
  %37 = load i64, ptr %9, align 8, !tbaa !24
  %38 = call i64 @ZSTD_decompressDCtx(ptr noundef %33, ptr noundef %34, i64 noundef %35, ptr noundef %36, i64 noundef %37)
  store i64 %38, ptr %10, align 8, !tbaa !24
  %39 = load ptr, ptr %11, align 8, !tbaa !3
  %40 = call i64 @ZSTD_freeDCtx(ptr noundef %39)
  %41 = load i64, ptr %10, align 8, !tbaa !24
  store i64 %41, ptr %5, align 8
  store i32 1, ptr %12, align 4
  br label %42

42:                                               ; preds = %32, %29
  call void @llvm.lifetime.end.p0(i64 8, ptr %11) #11
  call void @llvm.lifetime.end.p0(i64 8, ptr %10) #11
  %43 = load i64, ptr %5, align 8
  ret i64 %43
}