; Function Attrs: nounwind uwtable
define i64 @ZSTD_decompress(ptr noundef %0, i64 noundef %1, ptr noundef %2, i64 noundef %3) local_unnamed_addr #0 {
ZSTD_customMalloc.exit.i:
  %4 = tail call noalias dereferenceable_or_null(95992) ptr @malloc(i64 noundef 95992) #19
  %.not7.i = icmp eq ptr %4, null
  br i1 %.not7.i, label %ZSTD_createDCtx_internal.exit.thread, label %5

5:                                                ; preds = %ZSTD_customMalloc.exit.i
  %6 = getelementptr inbounds nuw i8, ptr %4, i64 30128
  %7 = getelementptr inbounds nuw i8, ptr %4, i64 30168
  store i64 0, ptr %7, align 8, !tbaa !41
  %8 = getelementptr inbounds nuw i8, ptr %4, i64 30184
  %9 = getelementptr inbounds nuw i8, ptr %4, i64 29912
  store ptr null, ptr %9, align 8, !tbaa !21
  %10 = getelementptr inbounds nuw i8, ptr %4, i64 30204
  store i32 0, ptr %10, align 4, !tbaa !22
  %11 = getelementptr inbounds nuw i8, ptr %4, i64 30208
  %12 = getelementptr inbounds nuw i8, ptr %4, i64 30280
  store i64 0, ptr %12, align 8, !tbaa !20
  %13 = getelementptr inbounds nuw i8, ptr %4, i64 30236
  %14 = getelementptr inbounds nuw i8, ptr %4, i64 30312
  store ptr null, ptr %14, align 8, !tbaa !24
  %15 = getelementptr inbounds nuw i8, ptr %4, i64 30320
  store i32 0, ptr %15, align 8, !tbaa !25
  %16 = getelementptr inbounds nuw i8, ptr %4, i64 30332
  store i32 0, ptr %16, align 4, !tbaa !26
  %17 = getelementptr inbounds nuw i8, ptr %4, i64 95976
  store i64 0, ptr %17, align 8, !tbaa !27
  %18 = getelementptr inbounds nuw i8, ptr %4, i64 30176
  tail call void @llvm.memset.p0.i64(ptr noundef nonnull align 4 dereferenceable(20) %13, i8 0, i64 20, i1 false)
  tail call void @llvm.memset.p0.i64(ptr noundef nonnull align 8 dereferenceable(24) %6, i8 0, i64 24, i1 false)
  store i32 1, ptr %18, align 8, !tbaa !28
  %19 = tail call i32 asm "cpuid", "={ax},{ax},~{ebx},~{ecx},~{edx},~{dirflag},~{fpsr},~{flags}"(i32 0) #18, !srcloc !29
  %.not.i.i.i.i = icmp eq i32 %19, 0
  br i1 %.not.i.i.i.i, label %ZSTD_decompressDCtx.exit, label %20

20:                                               ; preds = %5
  %21 = tail call { i32, i32, i32 } asm "cpuid", "={ax},={cx},={dx},{ax},~{ebx},~{dirflag},~{fpsr},~{flags}"(i32 1) #18, !srcloc !30
  %22 = icmp ugt i32 %19, 6
  br i1 %22, label %ZSTD_cpuid.exit.i.i.i, label %ZSTD_decompressDCtx.exit

ZSTD_cpuid.exit.i.i.i:                            ; preds = %20
  %23 = tail call { i32, i32, i32 } asm "cpuid", "={ax},={bx},={cx},{ax},{cx},~{edx},~{dirflag},~{fpsr},~{flags}"(i32 7, i32 0) #18, !srcloc !31
  %24 = extractvalue { i32, i32, i32 } %23, 1
  %25 = and i32 %24, 8
  %.not.i.i.i = icmp eq i32 %25, 0
  br i1 %.not.i.i.i, label %ZSTD_decompressDCtx.exit, label %26

26:                                               ; preds = %ZSTD_cpuid.exit.i.i.i
  %27 = lshr i32 %24, 8
  %28 = and i32 %27, 1
  br label %ZSTD_decompressDCtx.exit

ZSTD_decompressDCtx.exit:                         ; preds = %26, %ZSTD_cpuid.exit.i.i.i, %20, %5
  %29 = phi i32 [ 0, %ZSTD_cpuid.exit.i.i.i ], [ %28, %26 ], [ 0, %20 ], [ 0, %5 ]
  %30 = getelementptr inbounds nuw i8, ptr %4, i64 30180
  store i32 %29, ptr %30, align 4, !tbaa !32
  %31 = getelementptr inbounds nuw i8, ptr %4, i64 30216
  store ptr null, ptr %31, align 8, !tbaa !33
  %32 = getelementptr inbounds nuw i8, ptr %4, i64 30104
  store i32 0, ptr %32, align 8, !tbaa !34
  %33 = getelementptr inbounds nuw i8, ptr %4, i64 30264
  store i64 134217729, ptr %33, align 8, !tbaa !35
  %34 = getelementptr inbounds nuw i8, ptr %4, i64 30336
  store i32 0, ptr %34, align 8, !tbaa !36
  %35 = getelementptr inbounds nuw i8, ptr %4, i64 30108
  store i32 0, ptr %35, align 4, !tbaa !37
  %36 = getelementptr inbounds nuw i8, ptr %4, i64 30224
  store i32 0, ptr %36, align 8, !tbaa !38
  %37 = getelementptr inbounds nuw i8, ptr %4, i64 30228
  store i32 0, ptr %37, align 4, !tbaa !39
  %38 = getelementptr inbounds nuw i8, ptr %4, i64 30232
  store i32 0, ptr %38, align 8, !tbaa !40
  %39 = tail call i64 @ZSTD_freeDDict(ptr noundef null) #17
  store i32 0, ptr %11, align 8, !tbaa !23
  tail call void @llvm.memset.p0.i64(ptr noundef nonnull align 8 dereferenceable(16) %8, i8 0, i64 16, i1 false)
  %40 = tail call fastcc i64 @ZSTD_decompressMultiFrame(ptr noundef nonnull %4, ptr noundef %0, i64 noundef %1, ptr noundef %2, i64 noundef %3, ptr noundef null, i64 noundef 0, ptr noundef null)
  %41 = tail call i64 @ZSTD_freeDCtx(ptr noundef nonnull %4)
  br label %ZSTD_createDCtx_internal.exit.thread

ZSTD_createDCtx_internal.exit.thread:             ; preds = %ZSTD_customMalloc.exit.i, %ZSTD_decompressDCtx.exit
  %.0 = phi i64 [ %40, %ZSTD_decompressDCtx.exit ], [ -64, %ZSTD_customMalloc.exit.i ]
  ret i64 %.0
}